; Function Attrs: nounwind uwtable
define ptr @l___private_Lean_Environment_0__Lean_AsyncConsts_findRecTask___lambda__1(ptr noundef %0, ptr noundef %1) local_unnamed_addr #1 {
  %3 = load ptr, ptr @l_Lean_instTypeNameAsyncConsts, align 8, !tbaa !9
  %4 = tail call ptr @l___private_Init_Dynamic_0__Dynamic_get_x3fImpl___rarg(ptr noundef %1, ptr noundef %3) #10
  %5 = ptrtoint ptr %4 to i64
  %6 = and i64 %5, 1
  %.not.i15 = icmp eq i64 %6, 0
  br i1 %.not.i15, label %10, label %7

7:                                                ; preds = %2
  %8 = lshr i64 %5, 1
  %9 = trunc i64 %8 to i32
  br label %lean_obj_tag.exit

10:                                               ; preds = %2
  %11 = getelementptr i8, ptr %4, i64 4
  %.val.i = load i32, ptr %11, align 4
  %12 = lshr i32 %.val.i, 24
  br label %lean_obj_tag.exit

lean_obj_tag.exit:                                ; preds = %7, %10
  %.0.i = phi i32 [ %9, %7 ], [ %12, %10 ]
  %13 = icmp eq i32 %.0.i, 0
  br i1 %13, label %14, label %25

14:                                               ; preds = %lean_obj_tag.exit
  %15 = ptrtoint ptr %0 to i64
  %16 = and i64 %15, 1
  %.not19 = icmp eq i64 %16, 0
  br i1 %.not19, label %17, label %lean_dec.exit12

17:                                               ; preds = %14
  %18 = load i32, ptr %0, align 4, !tbaa !4
  %19 = icmp sgt i32 %18, 1
  br i1 %19, label %20, label %22, !prof !11

20:                                               ; preds = %17
  %21 = add nsw i32 %18, -1
  store i32 %21, ptr %0, align 4, !tbaa !4
  br label %lean_dec.exit12

22:                                               ; preds = %17
  %.not.i = icmp eq i32 %18, 0
  br i1 %.not.i, label %lean_dec.exit12, label %23

23:                                               ; preds = %22
  tail call void @lean_dec_ref_cold(ptr noundef nonnull %0) #10
  br label %lean_dec.exit12

lean_dec.exit12:                                  ; preds = %23, %22, %20, %14
  %24 = load ptr, ptr @l___private_Lean_Environment_0__Lean_AsyncConsts_findRecTask___lambda__1___closed__1, align 8, !tbaa !9
  br label %44

25:                                               ; preds = %lean_obj_tag.exit
  %26 = getelementptr inbounds nuw i8, ptr %4, i64 8
  %27 = load ptr, ptr %26, align 8, !tbaa !9
  %28 = ptrtoint ptr %27 to i64
  %29 = and i64 %28, 1
  %.not = icmp eq i64 %29, 0
  br i1 %.not, label %30, label %lean_inc.exit

30:                                               ; preds = %25
  %.val.i16 = load i32, ptr %27, align 4, !tbaa !4
  %31 = icmp sgt i32 %.val.i16, 0
  br i1 %31, label %32, label %34, !prof !11

32:                                               ; preds = %30
  %33 = add nuw i32 %.val.i16, 1
  store i32 %33, ptr %27, align 4, !tbaa !4
  br label %lean_inc.exit

34:                                               ; preds = %30
  %.not.i17 = icmp eq i32 %.val.i16, 0
  br i1 %.not.i17, label %lean_inc.exit, label %35

35:                                               ; preds = %34
  tail call void @lean_inc_ref_cold(ptr noundef nonnull %27) #10
  br label %lean_inc.exit

lean_inc.exit:                                    ; preds = %35, %34, %32, %25
  br i1 %.not.i15, label %36, label %lean_dec.exit

36:                                               ; preds = %lean_inc.exit
  %37 = load i32, ptr %4, align 4, !tbaa !4
  %38 = icmp sgt i32 %37, 1
  br i1 %38, label %39, label %41, !prof !11

39:                                               ; preds = %36
  %40 = add nsw i32 %37, -1
  store i32 %40, ptr %4, align 4, !tbaa !4
  br label %lean_dec.exit

41:                                               ; preds = %36
  %.not.i13 = icmp eq i32 %37, 0
  br i1 %.not.i13, label %lean_dec.exit, label %42

42:                                               ; preds = %41
  tail call void @lean_dec_ref_cold(ptr noundef nonnull %4) #10
  br label %lean_dec.exit

lean_dec.exit:                                    ; preds = %42, %41, %39, %lean_inc.exit
  %43 = tail call ptr @l___private_Lean_Environment_0__Lean_AsyncConsts_findRecTask(ptr noundef %27, ptr noundef %0)
  br label %44

44:                                               ; preds = %lean_dec.exit, %lean_dec.exit12
  %.0 = phi ptr [ %24, %lean_dec.exit12 ], [ %43, %lean_dec.exit ]
  ret ptr %.0
}